; ModuleID = '17/59.c'
source_filename = "17/59.c"
target datalayout = "e-m:e-p270:32:32-p271:32:32-p272:64:64-i64:64-f80:128-n8:16:32:64-S128"
target triple = "x86_64-pc-linux-gnu"

@.str = private unnamed_addr constant [3 x i8] c"%s\00", align 1
@.str.1 = private unnamed_addr constant [2 x i8] c"?\00", align 1
@.str.2 = private unnamed_addr constant [2 x i8] c"$\00", align 1
@.str.3 = private unnamed_addr constant [2 x i8] c" \00", align 1
@.str.4 = private unnamed_addr constant [2 x i8] c"\0A\00", align 1

; Function Attrs: noinline nounwind uwtable
define dso_local i32 @main(i32 %0, i8** %1) #0 {
  %3 = alloca i32, align 4
  %4 = alloca i32, align 4
  %5 = alloca i8**, align 8
  %6 = alloca [100 x i8], align 16
  %7 = alloca i32, align 4
  %8 = alloca i32, align 4
  %9 = alloca [100 x i32], align 16
  store i32 0, i32* %3, align 4
  store i32 %0, i32* %4, align 4
  store i8** %1, i8*** %5, align 8
  br label %10

10:                                               ; preds = %132, %2
  %11 = getelementptr inbounds [100 x i8], [100 x i8]* %6, i64 0, i64 0
  %12 = call i32 (i8*, ...) @__isoc99_scanf(i8* getelementptr inbounds ([3 x i8], [3 x i8]* @.str, i64 0, i64 0), i8* %11)
  %13 = icmp ne i32 %12, -1
  br i1 %13, label %14, label %134

14:                                               ; preds = %10
  %15 = getelementptr inbounds [100 x i8], [100 x i8]* %6, i64 0, i64 0
  %16 = call i32 @puts(i8* %15)
  %17 = bitcast [100 x i32]* %9 to i8*
  call void @llvm.memset.p0i8.i64(i8* align 16 %17, i8 0, i64 400, i1 false)
  store i32 0, i32* %7, align 4
  br label %18

18:                                               ; preds = %49, %14
  %19 = load i32, i32* %7, align 4
  %20 = sext i32 %19 to i64
  %21 = getelementptr inbounds [100 x i8], [100 x i8]* %6, i64 0, i64 %20
  %22 = load i8, i8* %21, align 1
  %23 = sext i8 %22 to i32
  %24 = icmp ne i32 %23, 0
  br i1 %24, label %25, label %52

25:                                               ; preds = %18
  %26 = load i32, i32* %7, align 4
  %27 = sext i32 %26 to i64
  %28 = getelementptr inbounds [100 x i8], [100 x i8]* %6, i64 0, i64 %27
  %29 = load i8, i8* %28, align 1
  %30 = sext i8 %29 to i32
  %31 = icmp eq i32 %30, 40
  br i1 %31, label %32, label %36

32:                                               ; preds = %25
  %33 = load i32, i32* %7, align 4
  %34 = sext i32 %33 to i64
  %35 = getelementptr inbounds [100 x i32], [100 x i32]* %9, i64 0, i64 %34
  store i32 -1, i32* %35, align 4
  br label %48

36:                                               ; preds = %25
  %37 = load i32, i32* %7, align 4
  %38 = sext i32 %37 to i64
  %39 = getelementptr inbounds [100 x i8], [100 x i8]* %6, i64 0, i64 %38
  %40 = load i8, i8* %39, align 1
  %41 = sext i8 %40 to i32
  %42 = icmp eq i32 %41, 41
  br i1 %42, label %43, label %47

43:                                               ; preds = %36
  %44 = load i32, i32* %7, align 4
  %45 = sext i32 %44 to i64
  %46 = getelementptr inbounds [100 x i32], [100 x i32]* %9, i64 0, i64 %45
  store i32 1, i32* %46, align 4
  br label %47

47:                                               ; preds = %43, %36
  br label %48

48:                                               ; preds = %47, %32
  br label %49

49:                                               ; preds = %48
  %50 = load i32, i32* %7, align 4
  %51 = add nsw i32 %50, 1
  store i32 %51, i32* %7, align 4
  br label %18

52:                                               ; preds = %18
  store i32 0, i32* %7, align 4
  br label %53

53:                                               ; preds = %91, %52
  %54 = load i32, i32* %7, align 4
  %55 = sext i32 %54 to i64
  %56 = getelementptr inbounds [100 x i8], [100 x i8]* %6, i64 0, i64 %55
  %57 = load i8, i8* %56, align 1
  %58 = sext i8 %57 to i32
  %59 = icmp ne i32 %58, 0
  br i1 %59, label %60, label %94

60:                                               ; preds = %53
  %61 = load i32, i32* %7, align 4
  %62 = sext i32 %61 to i64
  %63 = getelementptr inbounds [100 x i32], [100 x i32]* %9, i64 0, i64 %62
  %64 = load i32, i32* %63, align 4
  %65 = icmp eq i32 %64, 1
  br i1 %65, label %66, label %90

66:                                               ; preds = %60
  %67 = load i32, i32* %7, align 4
  %68 = sub nsw i32 %67, 1
  store i32 %68, i32* %8, align 4
  br label %69

69:                                               ; preds = %86, %66
  %70 = load i32, i32* %8, align 4
  %71 = icmp sge i32 %70, 0
  br i1 %71, label %72, label %89

72:                                               ; preds = %69
  %73 = load i32, i32* %8, align 4
  %74 = sext i32 %73 to i64
  %75 = getelementptr inbounds [100 x i32], [100 x i32]* %9, i64 0, i64 %74
  %76 = load i32, i32* %75, align 4
  %77 = icmp eq i32 %76, -1
  br i1 %77, label %78, label %85

78:                                               ; preds = %72
  %79 = load i32, i32* %8, align 4
  %80 = sext i32 %79 to i64
  %81 = getelementptr inbounds [100 x i32], [100 x i32]* %9, i64 0, i64 %80
  store i32 0, i32* %81, align 4
  %82 = load i32, i32* %7, align 4
  %83 = sext i32 %82 to i64
  %84 = getelementptr inbounds [100 x i32], [100 x i32]* %9, i64 0, i64 %83
  store i32 0, i32* %84, align 4
  br label %89

85:                                               ; preds = %72
  br label %86

86:                                               ; preds = %85
  %87 = load i32, i32* %8, align 4
  %88 = add nsw i32 %87, -1
  store i32 %88, i32* %8, align 4
  br label %69

89:                                               ; preds = %78, %69
  br label %90

90:                                               ; preds = %89, %60
  br label %91

91:                                               ; preds = %90
  %92 = load i32, i32* %7, align 4
  %93 = add nsw i32 %92, 1
  store i32 %93, i32* %7, align 4
  br label %53

94:                                               ; preds = %53
  store i32 0, i32* %7, align 4
  br label %95

95:                                               ; preds = %129, %94
  %96 = load i32, i32* %7, align 4
  %97 = sext i32 %96 to i64
  %98 = getelementptr inbounds [100 x i8], [100 x i8]* %6, i64 0, i64 %97
  %99 = load i8, i8* %98, align 1
  %100 = sext i8 %99 to i32
  %101 = icmp ne i32 %100, 0
  br i1 %101, label %102, label %132

102:                                              ; preds = %95
  %103 = load i32, i32* %7, align 4
  %104 = sext i32 %103 to i64
  %105 = getelementptr inbounds [100 x i32], [100 x i32]* %9, i64 0, i64 %104
  %106 = load i32, i32* %105, align 4
  %107 = icmp eq i32 %106, 1
  br i1 %107, label %108, label %110

108:                                              ; preds = %102
  %109 = call i32 (i8*, ...) @printf(i8* getelementptr inbounds ([2 x i8], [2 x i8]* @.str.1, i64 0, i64 0))
  br label %128

110:                                              ; preds = %102
  %111 = load i32, i32* %7, align 4
  %112 = sext i32 %111 to i64
  %113 = getelementptr inbounds [100 x i32], [100 x i32]* %9, i64 0, i64 %112
  %114 = load i32, i32* %113, align 4
  %115 = icmp eq i32 %114, -1
  br i1 %115, label %116, label %118

116:                                              ; preds = %110
  %117 = call i32 (i8*, ...) @printf(i8* getelementptr inbounds ([2 x i8], [2 x i8]* @.str.2, i64 0, i64 0))
  br label %127

118:                                              ; preds = %110
  %119 = load i32, i32* %7, align 4
  %120 = sext i32 %119 to i64
  %121 = getelementptr inbounds [100 x i32], [100 x i32]* %9, i64 0, i64 %120
  %122 = load i32, i32* %121, align 4
  %123 = icmp eq i32 %122, 0
  br i1 %123, label %124, label %126

124:                                              ; preds = %118
  %125 = call i32 (i8*, ...) @printf(i8* getelementptr inbounds ([2 x i8], [2 x i8]* @.str.3, i64 0, i64 0))
  br label %126

126:                                              ; preds = %124, %118
  br label %127

127:                                              ; preds = %126, %116
  br label %128

128:                                              ; preds = %127, %108
  br label %129

129:                                              ; preds = %128
  %130 = load i32, i32* %7, align 4
  %131 = add nsw i32 %130, 1
  store i32 %131, i32* %7, align 4
  br label %95

132:                                              ; preds = %95
  %133 = call i32 (i8*, ...) @printf(i8* getelementptr inbounds ([2 x i8], [2 x i8]* @.str.4, i64 0, i64 0))
  br label %10

134:                                              ; preds = %10
  ret i32 0
}

declare dso_local i32 @__isoc99_scanf(i8*, ...) #1

declare dso_local i32 @puts(i8*) #1

; Function Attrs: argmemonly nounwind willreturn
declare void @llvm.memset.p0i8.i64(i8* nocapture writeonly, i8, i64, i1 immarg) #2

declare dso_local i32 @printf(i8*, ...) #1


!llvm.module.flags = !{!0}
!llvm.ident = !{!1}

!0 = !{i32 1, !"wchar_size", i32 4}
!1 = !{!"clang version 10.0.0-4ubuntu1 "}
